target datalayout = "e-m:e-p270:32:32-p271:32:32-p272:64:64-i64:64-i128:128-f80:128-n8:16:32:64-S128"
target triple = "x86_64-unknown-linux-gnu"

%"class.hermes::hbc::HVMRegisterAllocator" = type { %"class.hermes::RegisterAllocator", i32, i32 }
%"class.hermes::RegisterAllocator" = type { ptr, %"class.llvh::DenseMap", %"class.llvh::DenseMap.0", %"class.llvh::SmallVector", %"class.llvh::SmallVector.3", %"class.llvh::DenseMap.10", %"class.hermes::RegisterFile", i32, i64, ptr }
%"class.llvh::DenseMap" = type <{ ptr, i32, i32, i32, [4 x i8] }>
%"class.llvh::DenseMap.0" = type <{ ptr, i32, i32, i32, [4 x i8] }>
%"class.llvh::SmallVector" = type { %"class.llvh::SmallVectorImpl", %"struct.llvh::SmallVectorStorage" }
%"class.llvh::SmallVectorImpl" = type { %"class.llvh::SmallVectorTemplateBase" }
%"class.llvh::SmallVectorTemplateBase" = type { %"class.llvh::SmallVectorTemplateCommon" }
%"class.llvh::SmallVectorTemplateCommon" = type { %"class.llvh::SmallVectorBase" }
%"class.llvh::SmallVectorBase" = type { ptr, i32, i32 }
%"struct.llvh::SmallVectorStorage" = type { [32 x %"struct.llvh::AlignedCharArrayUnion"] }
%"struct.llvh::AlignedCharArrayUnion" = type { %"struct.llvh::AlignedCharArray" }
%"struct.llvh::AlignedCharArray" = type { [8 x i8] }
%"class.llvh::SmallVector.3" = type { %"class.llvh::SmallVectorImpl.4", %"struct.llvh::SmallVectorStorage.7" }
%"class.llvh::SmallVectorImpl.4" = type { %"class.llvh::SmallVectorTemplateBase.5" }
%"class.llvh::SmallVectorTemplateBase.5" = type { %"class.llvh::SmallVectorTemplateCommon.6" }
%"class.llvh::SmallVectorTemplateCommon.6" = type { %"class.llvh::SmallVectorBase" }
%"struct.llvh::SmallVectorStorage.7" = type { [32 x %"struct.llvh::AlignedCharArrayUnion.8"] }
%"struct.llvh::AlignedCharArrayUnion.8" = type { %"struct.llvh::AlignedCharArray.9" }
%"struct.llvh::AlignedCharArray.9" = type { [48 x i8] }
%"class.llvh::DenseMap.10" = type <{ ptr, i32, i32, i32, [4 x i8] }>
%"class.hermes::RegisterFile" = type { %"class.llvh::BitVector" }
%"class.llvh::BitVector" = type <{ %"class.llvh::MutableArrayRef", i32, [4 x i8] }>
%"class.llvh::MutableArrayRef" = type { %"class.llvh::ArrayRef" }
%"class.llvh::ArrayRef" = type { ptr, i64 }

; Function Attrs: mustprogress nounwind uwtable
define linkonce_odr hidden void @_ZN6hermes3hbc20HVMRegisterAllocator22allocateParameterCountEj(ptr noundef nonnull align 8 dereferenceable(1960) %this, i32 noundef %count) #0 comdat align 2 {
entry:
  %this.addr = alloca ptr, align 8
  %count.addr = alloca i32, align 4
  store ptr %this, ptr %this.addr, align 8
  store i32 %count, ptr %count.addr, align 4
  %this1 = load ptr, ptr %this.addr, align 8
  %max_parameter_count_ = getelementptr inbounds %"class.hermes::hbc::HVMRegisterAllocator", ptr %this1, i32 0, i32 1
  %0 = load i32, ptr %max_parameter_count_, align 8
  %1 = load i32, ptr %count.addr, align 4
  %cmp = icmp ult i32 %0, %1
  br i1 %cmp, label %if.then, label %if.end

if.then:                                          ; preds = %entry
  %2 = load i32, ptr %count.addr, align 4
  %max_parameter_count_2 = getelementptr inbounds %"class.hermes::hbc::HVMRegisterAllocator", ptr %this1, i32 0, i32 1
  store i32 %2, ptr %max_parameter_count_2, align 8
  br label %if.end

if.end:                                           ; preds = %if.then, %entry
  ret void
}

; Function Attrs: mustprogress nounwind uwtable
define linkonce_odr hidden noundef i32 @_ZNK6hermes8CallInst15getNumArgumentsEv(ptr noundef nonnull align 8 dereferenceable(144) %this) #0 comdat align 2 {
entry:
  %this.addr = alloca ptr, align 8
  store ptr %this, ptr %this.addr, align 8
  %this1 = load ptr, ptr %this.addr, align 8
  %call = call noundef i32 @_ZNK6hermes11Instruction14getNumOperandsEv(ptr noundef nonnull align 8 dereferenceable(132) %this1)
  %sub = sub i32 %call, 2
  ret i32 %sub
}

; Function Attrs: mustprogress nounwind uwtable
define hidden void @_ZN6hermes3hbc20HVMRegisterAllocator16allocateCallInstEPNS_8CallInstE(ptr noundef nonnull align 8 dereferenceable(1960) %this, ptr noundef %I) #0 align 2 {
entry:
  %this.addr = alloca ptr, align 8
  %I.addr = alloca ptr, align 8
  store ptr %this, ptr %this.addr, align 8
  store ptr %I, ptr %I.addr, align 8
  %this1 = load ptr, ptr %this.addr, align 8
  %0 = load ptr, ptr %I.addr, align 8
  %call = call noundef i32 @_ZNK6hermes8CallInst15getNumArgumentsEv(ptr noundef nonnull align 8 dereferenceable(144) %0)
  %add = add i32 %call, 6
  call void @_ZN6hermes3hbc20HVMRegisterAllocator22allocateParameterCountEj(ptr noundef nonnull align 8 dereferenceable(1960) %this1, i32 noundef %add)
  ret void
}