; Function Attrs: mustprogress nounwind uwtable
define hidden void @_ZN6hermes3hbc20HVMRegisterAllocator16allocateCallInstEPNS_8CallInstE(ptr nocapture noundef nonnull align 8 dereferenceable(1960) %this, ptr noundef nonnull %I) local_unnamed_addr #0 align 2 {
entry:
  %call.i = tail call noundef i32 @_ZNK6hermes11Instruction14getNumOperandsEv(ptr noundef nonnull align 8 dereferenceable(132) %I) #19
  %add = add i32 %call.i, 4
  %max_parameter_count_.i = getelementptr inbounds i8, ptr %this, i64 1952
  %0 = load i32, ptr %max_parameter_count_.i, align 8
  %cmp.i = icmp ult i32 %0, %add
  br i1 %cmp.i, label %if.then.i, label %_ZN6hermes3hbc20HVMRegisterAllocator22allocateParameterCountEj.exit

if.then.i:                                        ; preds = %entry
  store i32 %add, ptr %max_parameter_count_.i, align 8
  br label %_ZN6hermes3hbc20HVMRegisterAllocator22allocateParameterCountEj.exit

_ZN6hermes3hbc20HVMRegisterAllocator22allocateParameterCountEj.exit: ; preds = %entry, %if.then.i
  ret void
}